; Function Attrs: nounwind uwtable
define i32 @pg_sprintf(ptr noundef %0, ptr noundef %1, ...) local_unnamed_addr #0 {
  %3 = alloca %struct.PrintfTarget, align 8
  %4 = alloca [1 x %struct.__va_list_tag], align 16
  call void @llvm.lifetime.start.p0(i64 24, ptr nonnull %4) #14
  call void @llvm.va_start.p0(ptr nonnull %4)
  call void @llvm.lifetime.start.p0(i64 40, ptr nonnull %3) #14
  store ptr %0, ptr %3, align 8
  %5 = getelementptr inbounds nuw i8, ptr %3, i64 8
  store ptr %0, ptr %5, align 8
  %6 = getelementptr inbounds nuw i8, ptr %3, i64 16
  %7 = getelementptr inbounds nuw i8, ptr %3, i64 32
  %8 = getelementptr inbounds nuw i8, ptr %3, i64 36
  call void @llvm.memset.p0.i64(ptr noundef nonnull align 8 dereferenceable(21) %6, i8 0, i64 21, i1 false)
  call fastcc void @dopr(ptr noundef %3, ptr noundef %1, ptr noundef nonnull %4)
  %9 = load ptr, ptr %3, align 8
  store i8 0, ptr %9, align 1
  %10 = load i8, ptr %8, align 4, !range !3, !noundef !4
  %11 = trunc nuw i8 %10 to i1
  %12 = load ptr, ptr %5, align 8
  %13 = ptrtoint ptr %9 to i64
  %14 = ptrtoint ptr %12 to i64
  %15 = sub i64 %13, %14
  %16 = load i32, ptr %7, align 8
  %17 = trunc i64 %15 to i32
  %18 = add i32 %16, %17
  %19 = select i1 %11, i32 -1, i32 %18
  call void @llvm.lifetime.end.p0(i64 40, ptr nonnull %3) #14
  call void @llvm.va_end.p0(ptr nonnull %4)
  call void @llvm.lifetime.end.p0(i64 24, ptr nonnull %4) #14
  ret i32 %19
}